target datalayout = "e-m:e-p270:32:32-p271:32:32-p272:64:64-i64:64-i128:128-f80:128-n8:16:32:64-S128"
target triple = "x86_64-pc-linux-gnu"

%struct._ir_ctx = type { ptr, i32, i32, i32, i32, i32, i32, i32, i32, i32, i32, %struct._ir_insn, ptr, ptr, ptr, i32, i32, i32, ptr, ptr, ptr, ptr, ptr, ptr, i32, i32, i64, i32, i32, i32, i64, i32, i32, i32, i32, ptr, ptr, ptr, ptr, ptr, ptr, %union.anon.13, ptr, i32, i32, i32, i64, i32, i32, i32, ptr, ptr, ptr, ptr, %struct._ir_strtab, [61 x i32], [14 x i32] }
%struct._ir_insn = type { %struct.anon, %union.anon.5 }
%struct.anon = type { %union.anon, %union.anon.4 }
%union.anon = type { i32 }
%union.anon.4 = type { i32 }
%union.anon.5 = type { %union._ir_val }
%union._ir_val = type { double }
%union.anon.13 = type { ptr }
%struct._ir_strtab = type { ptr, i32, i32, i32, i32, ptr, i32, i32 }
%struct.anon.0 = type { %union.anon.1, %union.anon.3 }
%union.anon.1 = type { i16 }
%union.anon.3 = type { i16 }
%struct.anon.2 = type { i8, i8 }
%struct._ir_use_list = type { i32, i32 }
%struct.anon.6 = type { i32, i32 }

; Function Attrs: nounwind uwtable
define internal i32 @ir_promote_d2f(ptr noundef %0, i32 noundef %1, i32 noundef %2) #0 {
  %4 = alloca i32, align 4
  %5 = alloca ptr, align 8
  %6 = alloca i32, align 4
  %7 = alloca i32, align 4
  %8 = alloca ptr, align 8
  %9 = alloca i32, align 4
  %10 = alloca i32, align 4
  %11 = alloca ptr, align 8
  store ptr %0, ptr %5, align 8, !tbaa !4
  store i32 %1, ptr %6, align 4, !tbaa !33
  store i32 %2, ptr %7, align 4, !tbaa !33
  call void @llvm.lifetime.start.p0(i64 8, ptr %8) #10
  %12 = load ptr, ptr %5, align 8, !tbaa !4
  %13 = getelementptr inbounds nuw %struct._ir_ctx, ptr %12, i32 0, i32 0
  %14 = load ptr, ptr %13, align 8, !tbaa !45
  %15 = load i32, ptr %6, align 4, !tbaa !33
  %16 = sext i32 %15 to i64
  %17 = getelementptr inbounds %struct._ir_insn, ptr %14, i64 %16
  store ptr %17, ptr %8, align 8, !tbaa !31
  call void @llvm.lifetime.start.p0(i64 4, ptr %9) #10
  %18 = load i32, ptr %6, align 4, !tbaa !33
  %19 = icmp slt i32 %18, 0
  br i1 %19, label %20, label %27

20:                                               ; preds = %3
  %21 = load ptr, ptr %5, align 8, !tbaa !4
  %22 = load ptr, ptr %8, align 8, !tbaa !31
  %23 = getelementptr inbounds nuw %struct._ir_insn, ptr %22, i32 0, i32 1
  %24 = load double, ptr %23, align 8, !tbaa !46
  %25 = fptrunc double %24 to float
  %26 = call i32 @ir_const_float(ptr noundef %21, float noundef %25)
  store i32 %26, ptr %4, align 4
  store i32 1, ptr %10, align 4
  br label %215

27:                                               ; preds = %3
  %28 = load ptr, ptr %8, align 8, !tbaa !31
  %29 = getelementptr inbounds nuw %struct._ir_insn, ptr %28, i32 0, i32 0
  %30 = getelementptr inbounds nuw %struct.anon, ptr %29, i32 0, i32 0
  %31 = getelementptr inbounds nuw %struct.anon.0, ptr %30, i32 0, i32 0
  %32 = getelementptr inbounds nuw %struct.anon.2, ptr %31, i32 0, i32 0
  %33 = load i8, ptr %32, align 8, !tbaa !46
  %34 = zext i8 %33 to i32
  switch i32 %34, label %211 [
    i32 37, label %35
    i32 29, label %142
    i32 30, label %142
    i32 24, label %159
    i32 25, label %159
    i32 26, label %159
    i32 27, label %159
    i32 56, label %159
    i32 57, label %159
  ]

35:                                               ; preds = %27
  %36 = load ptr, ptr %5, align 8, !tbaa !4
  %37 = getelementptr inbounds nuw %struct._ir_ctx, ptr %36, i32 0, i32 13
  %38 = load ptr, ptr %37, align 8, !tbaa !47
  %39 = load i32, ptr %6, align 4, !tbaa !33
  %40 = sext i32 %39 to i64
  %41 = getelementptr inbounds %struct._ir_use_list, ptr %38, i64 %40
  %42 = getelementptr inbounds nuw %struct._ir_use_list, ptr %41, i32 0, i32 1
  %43 = load i32, ptr %42, align 4, !tbaa !48
  store i32 %43, ptr %9, align 4, !tbaa !33
  %44 = load ptr, ptr %5, align 8, !tbaa !4
  %45 = load i32, ptr %6, align 4, !tbaa !33
  %46 = load i32, ptr %7, align 4, !tbaa !33
  call void @ir_use_list_remove_all(ptr noundef %44, i32 noundef %45, i32 noundef %46)
  %47 = load ptr, ptr %5, align 8, !tbaa !4
  %48 = getelementptr inbounds nuw %struct._ir_ctx, ptr %47, i32 0, i32 13
  %49 = load ptr, ptr %48, align 8, !tbaa !47
  %50 = load i32, ptr %6, align 4, !tbaa !33
  %51 = sext i32 %50 to i64
  %52 = getelementptr inbounds %struct._ir_use_list, ptr %49, i64 %51
  %53 = getelementptr inbounds nuw %struct._ir_use_list, ptr %52, i32 0, i32 1
  %54 = load i32, ptr %53, align 4, !tbaa !48
  %55 = icmp eq i32 %54, 0
  br i1 %55, label %56, label %102

56:                                               ; preds = %35
  %57 = load ptr, ptr %5, align 8, !tbaa !4
  %58 = load ptr, ptr %8, align 8, !tbaa !31
  %59 = getelementptr inbounds nuw %struct._ir_insn, ptr %58, i32 0, i32 0
  %60 = getelementptr inbounds nuw %struct.anon, ptr %59, i32 0, i32 1
  %61 = load i32, ptr %60, align 4, !tbaa !46
  %62 = load i32, ptr %6, align 4, !tbaa !33
  %63 = load i32, ptr %7, align 4, !tbaa !33
  call void @ir_use_list_replace_one(ptr noundef %57, i32 noundef %61, i32 noundef %62, i32 noundef %63)
  %64 = load i32, ptr %9, align 4, !tbaa !33
  %65 = icmp ugt i32 %64, 1
  br i1 %65, label %66, label %80

66:                                               ; preds = %56
  br label %67

67:                                               ; preds = %75, %66
  %68 = load ptr, ptr %5, align 8, !tbaa !4
  %69 = load ptr, ptr %8, align 8, !tbaa !31
  %70 = getelementptr inbounds nuw %struct._ir_insn, ptr %69, i32 0, i32 0
  %71 = getelementptr inbounds nuw %struct.anon, ptr %70, i32 0, i32 1
  %72 = load i32, ptr %71, align 4, !tbaa !46
  %73 = load i32, ptr %7, align 4, !tbaa !33
  %74 = call zeroext i1 @ir_use_list_add(ptr noundef %68, i32 noundef %72, i32 noundef %73)
  br label %75

75:                                               ; preds = %67
  %76 = load i32, ptr %9, align 4, !tbaa !33
  %77 = add i32 %76, -1
  store i32 %77, ptr %9, align 4, !tbaa !33
  %78 = icmp ugt i32 %77, 1
  br i1 %78, label %67, label %79

79:                                               ; preds = %75
  br label %80

80:                                               ; preds = %79, %56
  %81 = load ptr, ptr %8, align 8, !tbaa !31
  %82 = getelementptr inbounds nuw %struct._ir_insn, ptr %81, i32 0, i32 0
  %83 = getelementptr inbounds nuw %struct.anon, ptr %82, i32 0, i32 1
  %84 = load i32, ptr %83, align 4, !tbaa !46
  store i32 %84, ptr %6, align 4, !tbaa !33
  br label %85

85:                                               ; preds = %80
  call void @llvm.lifetime.start.p0(i64 8, ptr %11) #10
  %86 = load ptr, ptr %8, align 8, !tbaa !31
  store ptr %86, ptr %11, align 8, !tbaa !31
  %87 = load ptr, ptr %11, align 8, !tbaa !31
  %88 = getelementptr inbounds nuw %struct._ir_insn, ptr %87, i32 0, i32 0
  %89 = getelementptr inbounds nuw %struct.anon, ptr %88, i32 0, i32 0
  store i32 0, ptr %89, align 8, !tbaa !46
  %90 = load ptr, ptr %11, align 8, !tbaa !31
  %91 = getelementptr inbounds nuw %struct._ir_insn, ptr %90, i32 0, i32 1
  %92 = getelementptr inbounds nuw %struct.anon.6, ptr %91, i32 0, i32 1
  store i32 0, ptr %92, align 4, !tbaa !46
  %93 = load ptr, ptr %11, align 8, !tbaa !31
  %94 = getelementptr inbounds nuw %struct._ir_insn, ptr %93, i32 0, i32 1
  %95 = getelementptr inbounds nuw %struct.anon.6, ptr %94, i32 0, i32 0
  store i32 0, ptr %95, align 8, !tbaa !46
  %96 = load ptr, ptr %11, align 8, !tbaa !31
  %97 = getelementptr inbounds nuw %struct._ir_insn, ptr %96, i32 0, i32 0
  %98 = getelementptr inbounds nuw %struct.anon, ptr %97, i32 0, i32 1
  store i32 0, ptr %98, align 4, !tbaa !46
  call void @llvm.lifetime.end.p0(i64 8, ptr %11) #10
  br label %99

99:                                               ; preds = %85
  br label %100

100:                                              ; preds = %99
  %101 = load i32, ptr %6, align 4, !tbaa !33
  store i32 %101, ptr %4, align 4
  store i32 1, ptr %10, align 4
  br label %215

102:                                              ; preds = %35
  %103 = load ptr, ptr %5, align 8, !tbaa !4
  %104 = load ptr, ptr %8, align 8, !tbaa !31
  %105 = getelementptr inbounds nuw %struct._ir_insn, ptr %104, i32 0, i32 0
  %106 = getelementptr inbounds nuw %struct.anon, ptr %105, i32 0, i32 1
  %107 = load i32, ptr %106, align 4, !tbaa !46
  %108 = load i32, ptr %7, align 4, !tbaa !33
  %109 = call zeroext i1 @ir_use_list_add(ptr noundef %103, i32 noundef %107, i32 noundef %108)
  %110 = load ptr, ptr %5, align 8, !tbaa !4
  %111 = getelementptr inbounds nuw %struct._ir_ctx, ptr %110, i32 0, i32 13
  %112 = load ptr, ptr %111, align 8, !tbaa !47
  %113 = load i32, ptr %6, align 4, !tbaa !33
  %114 = sext i32 %113 to i64
  %115 = getelementptr inbounds %struct._ir_use_list, ptr %112, i64 %114
  %116 = getelementptr inbounds nuw %struct._ir_use_list, ptr %115, i32 0, i32 1
  %117 = load i32, ptr %116, align 4, !tbaa !48
  %118 = load i32, ptr %9, align 4, !tbaa !33
  %119 = sub i32 %118, %117
  store i32 %119, ptr %9, align 4, !tbaa !33
  %120 = load i32, ptr %9, align 4, !tbaa !33
  %121 = icmp ugt i32 %120, 1
  br i1 %121, label %122, label %136

122:                                              ; preds = %102
  br label %123

123:                                              ; preds = %131, %122
  %124 = load ptr, ptr %5, align 8, !tbaa !4
  %125 = load ptr, ptr %8, align 8, !tbaa !31
  %126 = getelementptr inbounds nuw %struct._ir_insn, ptr %125, i32 0, i32 0
  %127 = getelementptr inbounds nuw %struct.anon, ptr %126, i32 0, i32 1
  %128 = load i32, ptr %127, align 4, !tbaa !46
  %129 = load i32, ptr %7, align 4, !tbaa !33
  %130 = call zeroext i1 @ir_use_list_add(ptr noundef %124, i32 noundef %128, i32 noundef %129)
  br label %131

131:                                              ; preds = %123
  %132 = load i32, ptr %9, align 4, !tbaa !33
  %133 = add i32 %132, -1
  store i32 %133, ptr %9, align 4, !tbaa !33
  %134 = icmp ugt i32 %133, 1
  br i1 %134, label %123, label %135

135:                                              ; preds = %131
  br label %136

136:                                              ; preds = %135, %102
  br label %137

137:                                              ; preds = %136
  %138 = load ptr, ptr %8, align 8, !tbaa !31
  %139 = getelementptr inbounds nuw %struct._ir_insn, ptr %138, i32 0, i32 0
  %140 = getelementptr inbounds nuw %struct.anon, ptr %139, i32 0, i32 1
  %141 = load i32, ptr %140, align 4, !tbaa !46
  store i32 %141, ptr %4, align 4
  store i32 1, ptr %10, align 4
  br label %215

142:                                              ; preds = %27, %27
  %143 = load ptr, ptr %5, align 8, !tbaa !4
  %144 = load ptr, ptr %8, align 8, !tbaa !31
  %145 = getelementptr inbounds nuw %struct._ir_insn, ptr %144, i32 0, i32 0
  %146 = getelementptr inbounds nuw %struct.anon, ptr %145, i32 0, i32 1
  %147 = load i32, ptr %146, align 4, !tbaa !46
  %148 = load i32, ptr %6, align 4, !tbaa !33
  %149 = call i32 @ir_promote_d2f(ptr noundef %143, i32 noundef %147, i32 noundef %148)
  %150 = load ptr, ptr %8, align 8, !tbaa !31
  %151 = getelementptr inbounds nuw %struct._ir_insn, ptr %150, i32 0, i32 0
  %152 = getelementptr inbounds nuw %struct.anon, ptr %151, i32 0, i32 1
  store i32 %149, ptr %152, align 4, !tbaa !46
  %153 = load ptr, ptr %8, align 8, !tbaa !31
  %154 = getelementptr inbounds nuw %struct._ir_insn, ptr %153, i32 0, i32 0
  %155 = getelementptr inbounds nuw %struct.anon, ptr %154, i32 0, i32 0
  %156 = getelementptr inbounds nuw %struct.anon.0, ptr %155, i32 0, i32 0
  %157 = getelementptr inbounds nuw %struct.anon.2, ptr %156, i32 0, i32 1
  store i8 13, ptr %157, align 1, !tbaa !46
  %158 = load i32, ptr %6, align 4, !tbaa !33
  store i32 %158, ptr %4, align 4
  store i32 1, ptr %10, align 4
  br label %215

159:                                              ; preds = %27, %27, %27, %27, %27, %27
  %160 = load ptr, ptr %8, align 8, !tbaa !31
  %161 = getelementptr inbounds nuw %struct._ir_insn, ptr %160, i32 0, i32 0
  %162 = getelementptr inbounds nuw %struct.anon, ptr %161, i32 0, i32 1
  %163 = load i32, ptr %162, align 4, !tbaa !46
  %164 = load ptr, ptr %8, align 8, !tbaa !31
  %165 = getelementptr inbounds nuw %struct._ir_insn, ptr %164, i32 0, i32 1
  %166 = getelementptr inbounds nuw %struct.anon.6, ptr %165, i32 0, i32 0
  %167 = load i32, ptr %166, align 8, !tbaa !46
  %168 = icmp eq i32 %163, %167
  br i1 %168, label %169, label %183

169:                                              ; preds = %159
  %170 = load ptr, ptr %5, align 8, !tbaa !4
  %171 = load ptr, ptr %8, align 8, !tbaa !31
  %172 = getelementptr inbounds nuw %struct._ir_insn, ptr %171, i32 0, i32 0
  %173 = getelementptr inbounds nuw %struct.anon, ptr %172, i32 0, i32 1
  %174 = load i32, ptr %173, align 4, !tbaa !46
  %175 = load i32, ptr %6, align 4, !tbaa !33
  %176 = call i32 @ir_promote_d2f(ptr noundef %170, i32 noundef %174, i32 noundef %175)
  %177 = load ptr, ptr %8, align 8, !tbaa !31
  %178 = getelementptr inbounds nuw %struct._ir_insn, ptr %177, i32 0, i32 0
  %179 = getelementptr inbounds nuw %struct.anon, ptr %178, i32 0, i32 1
  store i32 %176, ptr %179, align 4, !tbaa !46
  %180 = load ptr, ptr %8, align 8, !tbaa !31
  %181 = getelementptr inbounds nuw %struct._ir_insn, ptr %180, i32 0, i32 1
  %182 = getelementptr inbounds nuw %struct.anon.6, ptr %181, i32 0, i32 0
  store i32 %176, ptr %182, align 8, !tbaa !46
  br label %204

183:                                              ; preds = %159
  %184 = load ptr, ptr %5, align 8, !tbaa !4
  %185 = load ptr, ptr %8, align 8, !tbaa !31
  %186 = getelementptr inbounds nuw %struct._ir_insn, ptr %185, i32 0, i32 0
  %187 = getelementptr inbounds nuw %struct.anon, ptr %186, i32 0, i32 1
  %188 = load i32, ptr %187, align 4, !tbaa !46
  %189 = load i32, ptr %6, align 4, !tbaa !33
  %190 = call i32 @ir_promote_d2f(ptr noundef %184, i32 noundef %188, i32 noundef %189)
  %191 = load ptr, ptr %8, align 8, !tbaa !31
  %192 = getelementptr inbounds nuw %struct._ir_insn, ptr %191, i32 0, i32 0
  %193 = getelementptr inbounds nuw %struct.anon, ptr %192, i32 0, i32 1
  store i32 %190, ptr %193, align 4, !tbaa !46
  %194 = load ptr, ptr %5, align 8, !tbaa !4
  %195 = load ptr, ptr %8, align 8, !tbaa !31
  %196 = getelementptr inbounds nuw %struct._ir_insn, ptr %195, i32 0, i32 1
  %197 = getelementptr inbounds nuw %struct.anon.6, ptr %196, i32 0, i32 0
  %198 = load i32, ptr %197, align 8, !tbaa !46
  %199 = load i32, ptr %6, align 4, !tbaa !33
  %200 = call i32 @ir_promote_d2f(ptr noundef %194, i32 noundef %198, i32 noundef %199)
  %201 = load ptr, ptr %8, align 8, !tbaa !31
  %202 = getelementptr inbounds nuw %struct._ir_insn, ptr %201, i32 0, i32 1
  %203 = getelementptr inbounds nuw %struct.anon.6, ptr %202, i32 0, i32 0
  store i32 %200, ptr %203, align 8, !tbaa !46
  br label %204

204:                                              ; preds = %183, %169
  %205 = load ptr, ptr %8, align 8, !tbaa !31
  %206 = getelementptr inbounds nuw %struct._ir_insn, ptr %205, i32 0, i32 0
  %207 = getelementptr inbounds nuw %struct.anon, ptr %206, i32 0, i32 0
  %208 = getelementptr inbounds nuw %struct.anon.0, ptr %207, i32 0, i32 0
  %209 = getelementptr inbounds nuw %struct.anon.2, ptr %208, i32 0, i32 1
  store i8 13, ptr %209, align 1, !tbaa !46
  %210 = load i32, ptr %6, align 4, !tbaa !33
  store i32 %210, ptr %4, align 4
  store i32 1, ptr %10, align 4
  br label %215

211:                                              ; preds = %27
  br label %212

212:                                              ; preds = %211
  br label %213

213:                                              ; preds = %212
  %214 = load i32, ptr %6, align 4, !tbaa !33
  store i32 %214, ptr %4, align 4
  store i32 1, ptr %10, align 4
  br label %215

215:                                              ; preds = %213, %204, %142, %137, %100, %20
  call void @llvm.lifetime.end.p0(i64 4, ptr %9) #10
  call void @llvm.lifetime.end.p0(i64 8, ptr %8) #10
  %216 = load i32, ptr %4, align 4
  ret i32 %216
}