; Function Attrs: nounwind uwtable
define internal fastcc i32 @ir_promote_d2f(ptr noundef %0, i32 noundef %1, i32 noundef range(i32 0, -2147483648) %2) unnamed_addr #0 {
  %4 = load ptr, ptr %0, align 8, !tbaa !38
  %5 = sext i32 %1 to i64
  %6 = getelementptr inbounds %struct._ir_insn, ptr %4, i64 %5
  %7 = icmp slt i32 %1, 0
  br i1 %7, label %8, label %13

8:                                                ; preds = %3
  %9 = getelementptr inbounds nuw i8, ptr %6, i64 8
  %10 = load double, ptr %9, align 8, !tbaa !39
  %11 = fptrunc double %10 to float
  %12 = tail call i32 @ir_const_float(ptr noundef nonnull %0, float noundef %11) #13
  br label %common.ret73

13:                                               ; preds = %3
  %14 = load i8, ptr %6, align 8, !tbaa !39
  switch i8 %14, label %common.ret73 [
    i8 37, label %15
    i8 29, label %45
    i8 30, label %45
    i8 24, label %50
    i8 25, label %50
    i8 26, label %50
    i8 27, label %50
    i8 56, label %50
    i8 57, label %50
  ]

15:                                               ; preds = %13
  %16 = getelementptr inbounds nuw i8, ptr %0, i64 72
  %17 = load ptr, ptr %16, align 8, !tbaa !41
  %18 = getelementptr inbounds nuw %struct._ir_use_list, ptr %17, i64 %5, i32 1
  %19 = load i32, ptr %18, align 4, !tbaa !42
  tail call void @ir_use_list_remove_all(ptr noundef nonnull %0, i32 noundef %1, i32 noundef %2) #13
  %20 = load ptr, ptr %16, align 8, !tbaa !41
  %21 = getelementptr inbounds nuw %struct._ir_use_list, ptr %20, i64 %5, i32 1
  %22 = load i32, ptr %21, align 4, !tbaa !42
  %23 = icmp eq i32 %22, 0
  %24 = getelementptr inbounds nuw i8, ptr %6, i64 4
  %25 = load i32, ptr %24, align 4, !tbaa !39
  br i1 %23, label %26, label %33

26:                                               ; preds = %15
  tail call void @ir_use_list_replace_one(ptr noundef nonnull %0, i32 noundef %25, i32 noundef %1, i32 noundef %2) #13
  %27 = icmp ugt i32 %19, 1
  br i1 %27, label %.preheader, label %.loopexit

.preheader:                                       ; preds = %26, %.preheader
  %.065 = phi i32 [ %30, %.preheader ], [ %19, %26 ]
  %28 = load i32, ptr %24, align 4, !tbaa !39
  %29 = tail call zeroext i1 @ir_use_list_add(ptr noundef nonnull %0, i32 noundef %28, i32 noundef %2) #13
  %30 = add i32 %.065, -1
  %31 = icmp ugt i32 %30, 1
  br i1 %31, label %.preheader, label %.loopexit

.loopexit:                                        ; preds = %.preheader, %26
  %32 = load i32, ptr %24, align 4, !tbaa !39
  tail call void @llvm.memset.p0.i64(ptr noundef nonnull align 8 dereferenceable(16) %6, i8 0, i64 16, i1 false)
  br label %common.ret73

33:                                               ; preds = %15
  %34 = tail call zeroext i1 @ir_use_list_add(ptr noundef nonnull %0, i32 noundef %25, i32 noundef %2) #13
  %35 = load ptr, ptr %16, align 8, !tbaa !41
  %36 = getelementptr inbounds nuw %struct._ir_use_list, ptr %35, i64 %5, i32 1
  %37 = load i32, ptr %36, align 4, !tbaa !42
  %38 = sub i32 %19, %37
  %39 = icmp ugt i32 %38, 1
  br i1 %39, label %.preheader71, label %.loopexit72

.preheader71:                                     ; preds = %33, %.preheader71
  %.1 = phi i32 [ %42, %.preheader71 ], [ %38, %33 ]
  %40 = load i32, ptr %24, align 4, !tbaa !39
  %41 = tail call zeroext i1 @ir_use_list_add(ptr noundef nonnull %0, i32 noundef %40, i32 noundef %2) #13
  %42 = add i32 %.1, -1
  %43 = icmp ugt i32 %42, 1
  br i1 %43, label %.preheader71, label %.loopexit72

.loopexit72:                                      ; preds = %.preheader71, %33
  %44 = load i32, ptr %24, align 4, !tbaa !39
  br label %common.ret73

common.ret73:                                     ; preds = %13, %60, %.loopexit72, %.loopexit, %8, %45
  %common.ret73.op = phi i32 [ %1, %45 ], [ %12, %8 ], [ %1, %60 ], [ %32, %.loopexit ], [ %44, %.loopexit72 ], [ %1, %13 ]
  ret i32 %common.ret73.op

45:                                               ; preds = %13, %13
  %46 = getelementptr inbounds nuw i8, ptr %6, i64 4
  %47 = load i32, ptr %46, align 4, !tbaa !39
  %48 = tail call fastcc i32 @ir_promote_d2f(ptr noundef nonnull %0, i32 noundef %47, i32 noundef %1)
  store i32 %48, ptr %46, align 4, !tbaa !39
  %49 = getelementptr inbounds nuw i8, ptr %6, i64 1
  store i8 13, ptr %49, align 1, !tbaa !39
  br label %common.ret73

50:                                               ; preds = %13, %13, %13, %13, %13, %13
  %51 = getelementptr inbounds nuw i8, ptr %6, i64 4
  %52 = load i32, ptr %51, align 4, !tbaa !39
  %53 = getelementptr inbounds nuw i8, ptr %6, i64 8
  %54 = load i32, ptr %53, align 8, !tbaa !39
  %55 = icmp eq i32 %52, %54
  %56 = tail call fastcc i32 @ir_promote_d2f(ptr noundef nonnull %0, i32 noundef %52, i32 noundef %1)
  store i32 %56, ptr %51, align 4, !tbaa !39
  br i1 %55, label %60, label %57

57:                                               ; preds = %50
  %58 = load i32, ptr %53, align 8, !tbaa !39
  %59 = tail call fastcc i32 @ir_promote_d2f(ptr noundef nonnull %0, i32 noundef %58, i32 noundef %1)
  br label %60

60:                                               ; preds = %50, %57
  %storemerge = phi i32 [ %59, %57 ], [ %56, %50 ]
  store i32 %storemerge, ptr %53, align 8, !tbaa !39
  %61 = getelementptr inbounds nuw i8, ptr %6, i64 1
  store i8 13, ptr %61, align 1, !tbaa !39
  br label %common.ret73
}